target datalayout = "e-m:e-p270:32:32-p271:32:32-p272:64:64-i64:64-i128:128-f80:128-n8:16:32:64-S128"
target triple = "x86_64-pc-linux-gnu"

%"class.cv::utils::trace::details::Region" = type <{ ptr, i32, [4 x i8] }>

; Function Attrs: mustprogress nounwind uwtable
define linkonce_odr noundef nonnull align 8 dereferenceable(8) ptr @_ZSt3minIdERKT_S2_S2_(ptr noundef nonnull align 8 dereferenceable(8) %0, ptr noundef nonnull align 8 dereferenceable(8) %1) #2 comdat {
  %3 = alloca ptr, align 8
  %4 = alloca ptr, align 8
  %5 = alloca ptr, align 8
  store ptr %0, ptr %4, align 8
  store ptr %1, ptr %5, align 8
  %6 = load ptr, ptr %5, align 8
  %7 = load double, ptr %6, align 8
  %8 = load ptr, ptr %4, align 8
  %9 = load double, ptr %8, align 8
  %10 = fcmp olt double %7, %9
  br i1 %10, label %11, label %13

11:                                               ; preds = %2
  %12 = load ptr, ptr %5, align 8
  store ptr %12, ptr %3, align 8
  br label %15

13:                                               ; preds = %2
  %14 = load ptr, ptr %4, align 8
  store ptr %14, ptr %3, align 8
  br label %15

15:                                               ; preds = %13, %11
  %16 = load ptr, ptr %3, align 8
  ret ptr %16
}

; Function Attrs: mustprogress uwtable
define internal noundef double @_ZN2cv3hal12cpu_baselineL5c_minIdEET_S3_S3_(double noundef %0, double noundef %1) #0 {
  %3 = alloca double, align 8
  %4 = alloca double, align 8
  store double %0, ptr %3, align 8
  store double %1, ptr %4, align 8
  %5 = call noundef nonnull align 8 dereferenceable(8) ptr @_ZSt3minIdERKT_S2_S2_(ptr noundef nonnull align 8 dereferenceable(8) %3, ptr noundef nonnull align 8 dereferenceable(8) %4)
  %6 = load double, ptr %5, align 8
  ret double %6
}

; Function Attrs: mustprogress uwtable
define linkonce_odr hidden noundef double @_ZN2cv3hal12cpu_baseline6op_minIdiE1rEdd(double noundef %0, double noundef %1) #0 comdat align 2 {
  %3 = alloca double, align 8
  %4 = alloca double, align 8
  store double %0, ptr %3, align 8
  store double %1, ptr %4, align 8
  %5 = load double, ptr %3, align 8
  %6 = load double, ptr %4, align 8
  %7 = call noundef double @_ZN2cv3hal12cpu_baselineL5c_minIdEET_S3_S3_(double noundef %5, double noundef %6)
  ret double %7
}

; Function Attrs: mustprogress nounwind uwtable
define linkonce_odr hidden void @_ZN2cv5utils5trace7details6RegionD2Ev(ptr noundef nonnull align 8 dereferenceable(12) %0) unnamed_addr #2 comdat align 2 personality ptr @__gxx_personality_v0 {
  %2 = alloca ptr, align 8
  store ptr %0, ptr %2, align 8
  %3 = load ptr, ptr %2, align 8
  %4 = getelementptr inbounds %"class.cv::utils::trace::details::Region", ptr %3, i32 0, i32 1
  %5 = load i32, ptr %4, align 8
  %6 = icmp ne i32 %5, 0
  br i1 %6, label %7, label %9

7:                                                ; preds = %1
  invoke void @_ZN2cv5utils5trace7details6Region7destroyEv(ptr noundef nonnull align 8 dereferenceable(12) %3)
          to label %8 unwind label %10

8:                                                ; preds = %7
  br label %9

9:                                                ; preds = %8, %1
  ret void

10:                                               ; preds = %7
  %11 = landingpad { ptr, i32 }
          catch ptr null
  %12 = extractvalue { ptr, i32 } %11, 0
  call void @__clang_call_terminate(ptr %12) #10
  unreachable
}

; Function Attrs: mustprogress uwtable
define internal void @_ZN2cv3hal12cpu_baselineL15bin_loop_nosimdINS1_6op_minEdiEEvPKT0_mS6_mPS4_mii(ptr noundef %0, i64 noundef %1, ptr noundef %2, i64 noundef %3, ptr noundef %4, i64 noundef %5, i32 noundef %6, i32 noundef %7) #0 {
  %9 = alloca ptr, align 8
  %10 = alloca i64, align 8
  %11 = alloca ptr, align 8
  %12 = alloca i64, align 8
  %13 = alloca ptr, align 8
  %14 = alloca i64, align 8
  %15 = alloca i32, align 4
  %16 = alloca i32, align 4
  %17 = alloca i32, align 4
  %18 = alloca double, align 8
  %19 = alloca double, align 8
  store ptr %0, ptr %9, align 8
  store i64 %1, ptr %10, align 8
  store ptr %2, ptr %11, align 8
  store i64 %3, ptr %12, align 8
  store ptr %4, ptr %13, align 8
  store i64 %5, ptr %14, align 8
  store i32 %6, ptr %15, align 4
  store i32 %7, ptr %16, align 4
  %20 = load i64, ptr %10, align 8
  %21 = udiv i64 %20, 8
  store i64 %21, ptr %10, align 8
  %22 = load i64, ptr %12, align 8
  %23 = udiv i64 %22, 8
  store i64 %23, ptr %12, align 8
  %24 = load i64, ptr %14, align 8
  %25 = udiv i64 %24, 8
  store i64 %25, ptr %14, align 8
  br label %26

26:                                               ; preds = %138, %8
  %27 = load i32, ptr %16, align 4
  %28 = add nsw i32 %27, -1
  store i32 %28, ptr %16, align 4
  %29 = icmp ne i32 %27, 0
  br i1 %29, label %30, label %148

30:                                               ; preds = %26
  store i32 0, ptr %17, align 4
  br label %31

31:                                               ; preds = %110, %30
  %32 = load i32, ptr %17, align 4
  %33 = load i32, ptr %15, align 4
  %34 = sub nsw i32 %33, 4
  %35 = icmp sle i32 %32, %34
  br i1 %35, label %36, label %113

36:                                               ; preds = %31
  %37 = load ptr, ptr %9, align 8
  %38 = load i32, ptr %17, align 4
  %39 = sext i32 %38 to i64
  %40 = getelementptr inbounds double, ptr %37, i64 %39
  %41 = load double, ptr %40, align 8
  %42 = load ptr, ptr %11, align 8
  %43 = load i32, ptr %17, align 4
  %44 = sext i32 %43 to i64
  %45 = getelementptr inbounds double, ptr %42, i64 %44
  %46 = load double, ptr %45, align 8
  %47 = call noundef double @_ZN2cv3hal12cpu_baseline6op_minIdiE1rEdd(double noundef %41, double noundef %46)
  store double %47, ptr %18, align 8
  %48 = load ptr, ptr %9, align 8
  %49 = load i32, ptr %17, align 4
  %50 = add nsw i32 %49, 1
  %51 = sext i32 %50 to i64
  %52 = getelementptr inbounds double, ptr %48, i64 %51
  %53 = load double, ptr %52, align 8
  %54 = load ptr, ptr %11, align 8
  %55 = load i32, ptr %17, align 4
  %56 = add nsw i32 %55, 1
  %57 = sext i32 %56 to i64
  %58 = getelementptr inbounds double, ptr %54, i64 %57
  %59 = load double, ptr %58, align 8
  %60 = call noundef double @_ZN2cv3hal12cpu_baseline6op_minIdiE1rEdd(double noundef %53, double noundef %59)
  store double %60, ptr %19, align 8
  %61 = load double, ptr %18, align 8
  %62 = load ptr, ptr %13, align 8
  %63 = load i32, ptr %17, align 4
  %64 = sext i32 %63 to i64
  %65 = getelementptr inbounds double, ptr %62, i64 %64
  store double %61, ptr %65, align 8
  %66 = load double, ptr %19, align 8
  %67 = load ptr, ptr %13, align 8
  %68 = load i32, ptr %17, align 4
  %69 = add nsw i32 %68, 1
  %70 = sext i32 %69 to i64
  %71 = getelementptr inbounds double, ptr %67, i64 %70
  store double %66, ptr %71, align 8
  %72 = load ptr, ptr %9, align 8
  %73 = load i32, ptr %17, align 4
  %74 = add nsw i32 %73, 2
  %75 = sext i32 %74 to i64
  %76 = getelementptr inbounds double, ptr %72, i64 %75
  %77 = load double, ptr %76, align 8
  %78 = load ptr, ptr %11, align 8
  %79 = load i32, ptr %17, align 4
  %80 = add nsw i32 %79, 2
  %81 = sext i32 %80 to i64
  %82 = getelementptr inbounds double, ptr %78, i64 %81
  %83 = load double, ptr %82, align 8
  %84 = call noundef double @_ZN2cv3hal12cpu_baseline6op_minIdiE1rEdd(double noundef %77, double noundef %83)
  store double %84, ptr %18, align 8
  %85 = load ptr, ptr %9, align 8
  %86 = load i32, ptr %17, align 4
  %87 = add nsw i32 %86, 3
  %88 = sext i32 %87 to i64
  %89 = getelementptr inbounds double, ptr %85, i64 %88
  %90 = load double, ptr %89, align 8
  %91 = load ptr, ptr %11, align 8
  %92 = load i32, ptr %17, align 4
  %93 = add nsw i32 %92, 3
  %94 = sext i32 %93 to i64
  %95 = getelementptr inbounds double, ptr %91, i64 %94
  %96 = load double, ptr %95, align 8
  %97 = call noundef double @_ZN2cv3hal12cpu_baseline6op_minIdiE1rEdd(double noundef %90, double noundef %96)
  store double %97, ptr %19, align 8
  %98 = load double, ptr %18, align 8
  %99 = load ptr, ptr %13, align 8
  %100 = load i32, ptr %17, align 4
  %101 = add nsw i32 %100, 2
  %102 = sext i32 %101 to i64
  %103 = getelementptr inbounds double, ptr %99, i64 %102
  store double %98, ptr %103, align 8
  %104 = load double, ptr %19, align 8
  %105 = load ptr, ptr %13, align 8
  %106 = load i32, ptr %17, align 4
  %107 = add nsw i32 %106, 3
  %108 = sext i32 %107 to i64
  %109 = getelementptr inbounds double, ptr %105, i64 %108
  store double %104, ptr %109, align 8
  br label %110

110:                                              ; preds = %36
  %111 = load i32, ptr %17, align 4
  %112 = add nsw i32 %111, 4
  store i32 %112, ptr %17, align 4
  br label %31, !llvm.loop !47

113:                                              ; preds = %31
  br label %114

114:                                              ; preds = %134, %113
  %115 = load i32, ptr %17, align 4
  %116 = load i32, ptr %15, align 4
  %117 = icmp slt i32 %115, %116
  br i1 %117, label %118, label %137

118:                                              ; preds = %114
  %119 = load ptr, ptr %9, align 8
  %120 = load i32, ptr %17, align 4
  %121 = sext i32 %120 to i64
  %122 = getelementptr inbounds double, ptr %119, i64 %121
  %123 = load double, ptr %122, align 8
  %124 = load ptr, ptr %11, align 8
  %125 = load i32, ptr %17, align 4
  %126 = sext i32 %125 to i64
  %127 = getelementptr inbounds double, ptr %124, i64 %126
  %128 = load double, ptr %127, align 8
  %129 = call noundef double @_ZN2cv3hal12cpu_baseline6op_minIdiE1rEdd(double noundef %123, double noundef %128)
  %130 = load ptr, ptr %13, align 8
  %131 = load i32, ptr %17, align 4
  %132 = sext i32 %131 to i64
  %133 = getelementptr inbounds double, ptr %130, i64 %132
  store double %129, ptr %133, align 8
  br label %134

134:                                              ; preds = %118
  %135 = load i32, ptr %17, align 4
  %136 = add nsw i32 %135, 1
  store i32 %136, ptr %17, align 4
  br label %114, !llvm.loop !48

137:                                              ; preds = %114
  br label %138

138:                                              ; preds = %137
  %139 = load i64, ptr %10, align 8
  %140 = load ptr, ptr %9, align 8
  %141 = getelementptr inbounds double, ptr %140, i64 %139
  store ptr %141, ptr %9, align 8
  %142 = load i64, ptr %12, align 8
  %143 = load ptr, ptr %11, align 8
  %144 = getelementptr inbounds double, ptr %143, i64 %142
  store ptr %144, ptr %11, align 8
  %145 = load i64, ptr %14, align 8
  %146 = load ptr, ptr %13, align 8
  %147 = getelementptr inbounds double, ptr %146, i64 %145
  store ptr %147, ptr %13, align 8
  br label %26, !llvm.loop !49

148:                                              ; preds = %26
  ret void
}

; Function Attrs: mustprogress uwtable
define hidden void @_ZN2cv3hal12cpu_baseline6min64fEPKdmS3_mPdmii(ptr noundef %0, i64 noundef %1, ptr noundef %2, i64 noundef %3, ptr noundef %4, i64 noundef %5, i32 noundef %6, i32 noundef %7) #0 personality ptr @__gxx_personality_v0 {
  %9 = alloca ptr, align 8
  %10 = alloca i64, align 8
  %11 = alloca ptr, align 8
  %12 = alloca i64, align 8
  %13 = alloca ptr, align 8
  %14 = alloca i64, align 8
  %15 = alloca i32, align 4
  %16 = alloca i32, align 4
  %17 = alloca %"class.cv::utils::trace::details::Region", align 8
  %18 = alloca ptr, align 8
  %19 = alloca i32, align 4
  store ptr %0, ptr %9, align 8
  store i64 %1, ptr %10, align 8
  store ptr %2, ptr %11, align 8
  store i64 %3, ptr %12, align 8
  store ptr %4, ptr %13, align 8
  store i64 %5, ptr %14, align 8
  store i32 %6, ptr %15, align 4
  store i32 %7, ptr %16, align 4
  call void @_ZN2cv5utils5trace7details6RegionC1ERKNS3_21LocationStaticStorageE(ptr noundef nonnull align 8 dereferenceable(12) %17, ptr noundef nonnull align 8 dereferenceable(32) @_ZZN2cv3hal12cpu_baseline6min64fEPKdmS3_mPdmiiE25__cv_trace_location_fn544)
  %20 = load ptr, ptr %9, align 8
  %21 = load i64, ptr %10, align 8
  %22 = load ptr, ptr %11, align 8
  %23 = load i64, ptr %12, align 8
  %24 = load ptr, ptr %13, align 8
  %25 = load i64, ptr %14, align 8
  %26 = load i32, ptr %15, align 4
  %27 = load i32, ptr %16, align 4
  invoke void @_ZN2cv3hal12cpu_baselineL15bin_loop_nosimdINS1_6op_minEdiEEvPKT0_mS6_mPS4_mii(ptr noundef %20, i64 noundef %21, ptr noundef %22, i64 noundef %23, ptr noundef %24, i64 noundef %25, i32 noundef %26, i32 noundef %27)
          to label %28 unwind label %29

28:                                               ; preds = %8
  call void @_ZN2cv5utils5trace7details6RegionD2Ev(ptr noundef nonnull align 8 dereferenceable(12) %17) #9
  ret void

29:                                               ; preds = %8
  %30 = landingpad { ptr, i32 }
          cleanup
  %31 = extractvalue { ptr, i32 } %30, 0
  store ptr %31, ptr %18, align 8
  %32 = extractvalue { ptr, i32 } %30, 1
  store i32 %32, ptr %19, align 4
  call void @_ZN2cv5utils5trace7details6RegionD2Ev(ptr noundef nonnull align 8 dereferenceable(12) %17) #9
  br label %33

33:                                               ; preds = %29
  %34 = load ptr, ptr %18, align 8
  %35 = load i32, ptr %19, align 4
  %36 = insertvalue { ptr, i32 } poison, ptr %34, 0
  %37 = insertvalue { ptr, i32 } %36, i32 %35, 1
  resume { ptr, i32 } %37
}